target datalayout = "e-m:e-p270:32:32-p271:32:32-p272:64:64-i64:64-i128:128-f80:128-n8:16:32:64-S128"
target triple = "x86_64-pc-linux-gnu"

%struct.RelationData = type { %struct.RelFileLocator, ptr, i32, i32, i8, i8, i8, i8, i8, i32, i32, i32, i32, ptr, ptr, i32, %struct.LockInfoData, ptr, ptr, ptr, ptr, ptr, i8, ptr, ptr, ptr, ptr, ptr, ptr, i32, ptr, i8, ptr, ptr, i32, i8, i32, ptr, i8, ptr, ptr, ptr, ptr, ptr, ptr, ptr, i32, ptr, ptr, ptr, ptr, ptr, ptr, ptr, ptr, ptr, ptr, ptr, ptr, ptr, ptr, ptr, ptr, ptr, ptr, ptr, i32, i8, ptr }
%struct.RelFileLocator = type { i32, i32, i32 }
%struct.LockInfoData = type { %struct.LockRelId }
%struct.LockRelId = type { i32, i32 }

; Function Attrs: nounwind uwtable
define dso_local void @toast_close_indexes(ptr noundef %0, i32 noundef %1, i32 noundef %2) #0 {
  %4 = alloca ptr, align 8
  %5 = alloca i32, align 4
  %6 = alloca i32, align 4
  %7 = alloca i32, align 4
  store ptr %0, ptr %4, align 8
  store i32 %1, ptr %5, align 4
  store i32 %2, ptr %6, align 4
  call void @llvm.lifetime.start.p0(i64 4, ptr %7) #8
  store i32 0, ptr %7, align 4
  br label %8

8:                                                ; preds = %19, %3
  %9 = load i32, ptr %7, align 4
  %10 = load i32, ptr %5, align 4
  %11 = icmp slt i32 %9, %10
  br i1 %11, label %12, label %22

12:                                               ; preds = %8
  %13 = load ptr, ptr %4, align 8
  %14 = load i32, ptr %7, align 4
  %15 = sext i32 %14 to i64
  %16 = getelementptr inbounds ptr, ptr %13, i64 %15
  %17 = load ptr, ptr %16, align 8
  %18 = load i32, ptr %6, align 4
  call void @index_close(ptr noundef %17, i32 noundef %18)
  br label %19

19:                                               ; preds = %12
  %20 = load i32, ptr %7, align 4
  %21 = add i32 %20, 1
  store i32 %21, ptr %7, align 4
  br label %8, !llvm.loop !12

22:                                               ; preds = %8
  %23 = load ptr, ptr %4, align 8
  call void @pfree(ptr noundef %23)
  call void @llvm.lifetime.end.p0(i64 4, ptr %7) #8
  ret void
}

; Function Attrs: nounwind uwtable
define dso_local i32 @toast_get_valid_index(i32 noundef %0, i32 noundef %1) #0 {
  %3 = alloca i32, align 4
  %4 = alloca i32, align 4
  %5 = alloca i32, align 4
  %6 = alloca i32, align 4
  %7 = alloca i32, align 4
  %8 = alloca ptr, align 8
  %9 = alloca ptr, align 8
  store i32 %0, ptr %3, align 4
  store i32 %1, ptr %4, align 4
  call void @llvm.lifetime.start.p0(i64 4, ptr %5) #8
  call void @llvm.lifetime.start.p0(i64 4, ptr %6) #8
  call void @llvm.lifetime.start.p0(i64 4, ptr %7) #8
  call void @llvm.lifetime.start.p0(i64 8, ptr %8) #8
  call void @llvm.lifetime.start.p0(i64 8, ptr %9) #8
  %10 = load i32, ptr %3, align 4
  %11 = load i32, ptr %4, align 4
  %12 = call ptr @table_open(i32 noundef %10, i32 noundef %11)
  store ptr %12, ptr %9, align 8
  %13 = load ptr, ptr %9, align 8
  %14 = load i32, ptr %4, align 4
  %15 = call i32 @toast_open_indexes(ptr noundef %13, i32 noundef %14, ptr noundef %8, ptr noundef %5)
  store i32 %15, ptr %6, align 4
  %16 = load ptr, ptr %8, align 8
  %17 = load i32, ptr %6, align 4
  %18 = sext i32 %17 to i64
  %19 = getelementptr inbounds ptr, ptr %16, i64 %18
  %20 = load ptr, ptr %19, align 8
  %21 = getelementptr inbounds nuw %struct.RelationData, ptr %20, i32 0, i32 15
  %22 = load i32, ptr %21, align 8
  store i32 %22, ptr %7, align 4
  %23 = load ptr, ptr %8, align 8
  %24 = load i32, ptr %5, align 4
  call void @toast_close_indexes(ptr noundef %23, i32 noundef %24, i32 noundef 0)
  %25 = load ptr, ptr %9, align 8
  call void @table_close(ptr noundef %25, i32 noundef 0)
  %26 = load i32, ptr %7, align 4
  call void @llvm.lifetime.end.p0(i64 8, ptr %9) #8
  call void @llvm.lifetime.end.p0(i64 8, ptr %8) #8
  call void @llvm.lifetime.end.p0(i64 4, ptr %7) #8
  call void @llvm.lifetime.end.p0(i64 4, ptr %6) #8
  call void @llvm.lifetime.end.p0(i64 4, ptr %5) #8
  ret i32 %26
}