; Function Attrs: nounwind uwtable
define dso_local i32 @toast_get_valid_index(i32 noundef %0, i32 noundef %1) local_unnamed_addr #0 {
  %3 = alloca i32, align 4
  %4 = alloca ptr, align 8
  call void @llvm.lifetime.start.p0(i64 4, ptr nonnull %3) #7
  call void @llvm.lifetime.start.p0(i64 8, ptr nonnull %4) #7
  %5 = tail call ptr @table_open(i32 noundef %0, i32 noundef %1) #7
  %6 = call i32 @toast_open_indexes(ptr noundef %5, i32 noundef %1, ptr noundef nonnull %4, ptr noundef nonnull %3)
  %7 = load ptr, ptr %4, align 8
  %8 = sext i32 %6 to i64
  %9 = getelementptr inbounds ptr, ptr %7, i64 %8
  %10 = load ptr, ptr %9, align 8
  %11 = getelementptr inbounds nuw i8, ptr %10, i64 72
  %12 = load i32, ptr %11, align 8
  %13 = load i32, ptr %3, align 4
  %14 = icmp sgt i32 %13, 0
  br i1 %14, label %.lr.ph.preheader.i, label %toast_close_indexes.exit

.lr.ph.preheader.i:                               ; preds = %2
  %wide.trip.count.i = zext nneg i32 %13 to i64
  br label %.lr.ph.i

.lr.ph.i:                                         ; preds = %.lr.ph.i, %.lr.ph.preheader.i
  %indvars.iv.i = phi i64 [ 0, %.lr.ph.preheader.i ], [ %indvars.iv.next.i, %.lr.ph.i ]
  %15 = getelementptr inbounds nuw ptr, ptr %7, i64 %indvars.iv.i
  %16 = load ptr, ptr %15, align 8
  tail call void @index_close(ptr noundef %16, i32 noundef 0) #7
  %indvars.iv.next.i = add nuw nsw i64 %indvars.iv.i, 1
  %exitcond.not.i = icmp eq i64 %indvars.iv.next.i, %wide.trip.count.i
  br i1 %exitcond.not.i, label %toast_close_indexes.exit, label %.lr.ph.i, !llvm.loop !11

toast_close_indexes.exit:                         ; preds = %.lr.ph.i, %2
  tail call void @pfree(ptr noundef nonnull %7) #7
  tail call void @table_close(ptr noundef %5, i32 noundef 0) #7
  call void @llvm.lifetime.end.p0(i64 8, ptr nonnull %4) #7
  call void @llvm.lifetime.end.p0(i64 4, ptr nonnull %3) #7
  ret i32 %12
}